; Function Attrs: null_pointer_is_valid sspstrong uwtable
define internal void @dissect_zcl_ias_zone_attr_data(ptr noundef %0, ptr noundef %1, ptr noundef %2, i16 noundef zeroext %3, i32 noundef %4, i1 noundef zeroext %5) #0 {
  switch i16 %3, label %26 [
    i16 0, label %7
    i16 1, label %13
    i16 2, label %19
  ]

7:                                                ; preds = %6
  %8 = load i32, ptr @hf_zbee_zcl_ias_zone_state, align 4
  %9 = load i32, ptr %2, align 4
  %10 = tail call ptr @proto_tree_add_item(ptr noundef %0, i32 noundef %8, ptr noundef %1, i32 noundef %9, i32 noundef 1, i32 noundef 0)
  %11 = load i32, ptr %2, align 4
  %12 = add i32 %11, 1
  store i32 %12, ptr %2, align 4
  br label %27

13:                                               ; preds = %6
  %14 = load i32, ptr @hf_zbee_zcl_ias_zone_type, align 4
  %15 = load i32, ptr %2, align 4
  %16 = tail call ptr @proto_tree_add_item(ptr noundef %0, i32 noundef %14, ptr noundef %1, i32 noundef %15, i32 noundef 2, i32 noundef -2147483648)
  %17 = load i32, ptr %2, align 4
  %18 = add i32 %17, 2
  store i32 %18, ptr %2, align 4
  br label %27

19:                                               ; preds = %6
  %20 = load i32, ptr %2, align 4
  %21 = load i32, ptr @hf_zbee_zcl_ias_zone_status, align 4
  %22 = load i32, ptr @ett_zbee_zcl_ias_zone_status, align 4
  %23 = tail call ptr @proto_tree_add_bitmask(ptr noundef %0, ptr noundef %1, i32 noundef %20, i32 noundef %21, i32 noundef %22, ptr noundef nonnull @dissect_zcl_ias_zone_status.ias_zone_statuses, i32 noundef -2147483648)
  %24 = load i32, ptr %2, align 4
  %25 = add i32 %24, 2
  store i32 %25, ptr %2, align 4
  br label %27

26:                                               ; preds = %6
  tail call void @dissect_zcl_attr_data(ptr noundef %1, ptr noundef %0, ptr noundef %2, i32 noundef %4, i1 noundef zeroext %5)
  br label %27

27:                                               ; preds = %26, %19, %13, %7
  ret void
}